target datalayout = "e-m:e-p270:32:32-p271:32:32-p272:64:64-i64:64-i128:128-f80:128-n8:16:32:64-S128"
target triple = "x86_64-pc-linux-gnu"

%"class.cv::Range" = type { i32, i32 }
%"class.cv::ParallelLoopBody" = type { ptr }
%"struct.cv::hal::cpu_baseline::(anonymous namespace)::YUV420sp2RGB8Invoker.15" = type { %"class.cv::ParallelLoopBody", ptr, i64, i32, ptr, i64, ptr, i64 }

@_ZTVN2cv16ParallelLoopBodyE = external unnamed_addr constant { [5 x ptr] }, align 8

; Function Attrs: mustprogress nounwind uwtable
define linkonce_odr hidden void @_ZN2cv16ParallelLoopBodyC2Ev(ptr noundef nonnull align 8 dereferenceable(8) %0) unnamed_addr #2 comdat align 2 {
  %2 = alloca ptr, align 8
  store ptr %0, ptr %2, align 8
  %3 = load ptr, ptr %2, align 8
  store ptr getelementptr inbounds inrange(-16, 24) ({ [5 x ptr] }, ptr @_ZTVN2cv16ParallelLoopBodyE, i32 0, i32 0, i32 2), ptr %3, align 8
  ret void
}

; Function Attrs: mustprogress nounwind uwtable
define internal void @_ZN2cv3hal12cpu_baseline12_GLOBAL__N_120YUV420sp2RGB8InvokerILi2ELi1ELi3EED2Ev(ptr noundef nonnull align 8 dereferenceable(64) %0) unnamed_addr #2 align 2 {
  %2 = alloca ptr, align 8
  store ptr %0, ptr %2, align 8
  %3 = load ptr, ptr %2, align 8
  call void @_ZN2cv16ParallelLoopBodyD2Ev(ptr noundef nonnull align 8 dereferenceable(8) %3) #10
  ret void
}

; Function Attrs: mustprogress nounwind uwtable
define linkonce_odr hidden void @_ZN2cv5RangeC2Eii(ptr noundef nonnull align 4 dereferenceable(8) %0, i32 noundef %1, i32 noundef %2) unnamed_addr #2 comdat align 2 {
  %4 = alloca ptr, align 8
  %5 = alloca i32, align 4
  %6 = alloca i32, align 4
  store ptr %0, ptr %4, align 8
  store i32 %1, ptr %5, align 4
  store i32 %2, ptr %6, align 4
  %7 = load ptr, ptr %4, align 8
  %8 = getelementptr inbounds %"class.cv::Range", ptr %7, i32 0, i32 0
  %9 = load i32, ptr %5, align 4
  store i32 %9, ptr %8, align 4
  %10 = getelementptr inbounds %"class.cv::Range", ptr %7, i32 0, i32 1
  %11 = load i32, ptr %6, align 4
  store i32 %11, ptr %10, align 4
  ret void
}

; Function Attrs: mustprogress nounwind uwtable
define internal void @_ZN2cv3hal12cpu_baseline12_GLOBAL__N_120YUV420sp2RGB8InvokerILi2ELi1ELi3EEC2EPhmiPKhmS7_m(ptr noundef nonnull align 8 dereferenceable(64) %0, ptr noundef %1, i64 noundef %2, i32 noundef %3, ptr noundef %4, i64 noundef %5, ptr noundef %6, i64 noundef %7) unnamed_addr #2 align 2 {
  %9 = alloca ptr, align 8
  %10 = alloca ptr, align 8
  %11 = alloca i64, align 8
  %12 = alloca i32, align 4
  %13 = alloca ptr, align 8
  %14 = alloca i64, align 8
  %15 = alloca ptr, align 8
  %16 = alloca i64, align 8
  store ptr %0, ptr %9, align 8
  store ptr %1, ptr %10, align 8
  store i64 %2, ptr %11, align 8
  store i32 %3, ptr %12, align 4
  store ptr %4, ptr %13, align 8
  store i64 %5, ptr %14, align 8
  store ptr %6, ptr %15, align 8
  store i64 %7, ptr %16, align 8
  %17 = load ptr, ptr %9, align 8
  call void @_ZN2cv16ParallelLoopBodyC2Ev(ptr noundef nonnull align 8 dereferenceable(8) %17) #10
  store ptr getelementptr inbounds inrange(-16, 24) ({ [5 x ptr] }, ptr @_ZTVN2cv3hal12cpu_baseline12_GLOBAL__N_120YUV420sp2RGB8InvokerILi2ELi1ELi3EEE, i32 0, i32 0, i32 2), ptr %17, align 8
  %18 = getelementptr inbounds %"struct.cv::hal::cpu_baseline::(anonymous namespace)::YUV420sp2RGB8Invoker.15", ptr %17, i32 0, i32 1
  %19 = load ptr, ptr %10, align 8
  store ptr %19, ptr %18, align 8
  %20 = getelementptr inbounds %"struct.cv::hal::cpu_baseline::(anonymous namespace)::YUV420sp2RGB8Invoker.15", ptr %17, i32 0, i32 2
  %21 = load i64, ptr %11, align 8
  store i64 %21, ptr %20, align 8
  %22 = getelementptr inbounds %"struct.cv::hal::cpu_baseline::(anonymous namespace)::YUV420sp2RGB8Invoker.15", ptr %17, i32 0, i32 3
  %23 = load i32, ptr %12, align 4
  store i32 %23, ptr %22, align 8
  %24 = getelementptr inbounds %"struct.cv::hal::cpu_baseline::(anonymous namespace)::YUV420sp2RGB8Invoker.15", ptr %17, i32 0, i32 4
  %25 = load ptr, ptr %13, align 8
  store ptr %25, ptr %24, align 8
  %26 = getelementptr inbounds %"struct.cv::hal::cpu_baseline::(anonymous namespace)::YUV420sp2RGB8Invoker.15", ptr %17, i32 0, i32 5
  %27 = load i64, ptr %14, align 8
  store i64 %27, ptr %26, align 8
  %28 = getelementptr inbounds %"struct.cv::hal::cpu_baseline::(anonymous namespace)::YUV420sp2RGB8Invoker.15", ptr %17, i32 0, i32 6
  %29 = load ptr, ptr %15, align 8
  store ptr %29, ptr %28, align 8
  %30 = getelementptr inbounds %"struct.cv::hal::cpu_baseline::(anonymous namespace)::YUV420sp2RGB8Invoker.15", ptr %17, i32 0, i32 7
  %31 = load i64, ptr %16, align 8
  store i64 %31, ptr %30, align 8
  ret void
}

; Function Attrs: mustprogress uwtable
define internal void @_ZN2cv3hal12cpu_baseline12_GLOBAL__N_115cvtYUV420sp2RGBILi2ELi1ELi3EEEvPhmiiPKhmS6_m(ptr noundef %0, i64 noundef %1, i32 noundef %2, i32 noundef %3, ptr noundef %4, i64 noundef %5, ptr noundef %6, i64 noundef %7) #0 personality ptr @__gxx_personality_v0 {
  %9 = alloca ptr, align 8
  %10 = alloca i64, align 8
  %11 = alloca i32, align 4
  %12 = alloca i32, align 4
  %13 = alloca ptr, align 8
  %14 = alloca i64, align 8
  %15 = alloca ptr, align 8
  %16 = alloca i64, align 8
  %17 = alloca %"struct.cv::hal::cpu_baseline::(anonymous namespace)::YUV420sp2RGB8Invoker.15", align 8
  %18 = alloca %"class.cv::Range", align 4
  %19 = alloca ptr, align 8
  %20 = alloca i32, align 4
  %21 = alloca %"class.cv::Range", align 4
  store ptr %0, ptr %9, align 8
  store i64 %1, ptr %10, align 8
  store i32 %2, ptr %11, align 4
  store i32 %3, ptr %12, align 4
  store ptr %4, ptr %13, align 8
  store i64 %5, ptr %14, align 8
  store ptr %6, ptr %15, align 8
  store i64 %7, ptr %16, align 8
  %22 = load ptr, ptr %9, align 8
  %23 = load i64, ptr %10, align 8
  %24 = load i32, ptr %11, align 4
  %25 = load ptr, ptr %13, align 8
  %26 = load i64, ptr %14, align 8
  %27 = load ptr, ptr %15, align 8
  %28 = load i64, ptr %16, align 8
  call void @_ZN2cv3hal12cpu_baseline12_GLOBAL__N_120YUV420sp2RGB8InvokerILi2ELi1ELi3EEC2EPhmiPKhmS7_m(ptr noundef nonnull align 8 dereferenceable(64) %17, ptr noundef %22, i64 noundef %23, i32 noundef %24, ptr noundef %25, i64 noundef %26, ptr noundef %27, i64 noundef %28)
  %29 = load i32, ptr %11, align 4
  %30 = load i32, ptr %12, align 4
  %31 = mul nsw i32 %29, %30
  %32 = icmp sge i32 %31, 76800
  br i1 %32, label %33, label %42

33:                                               ; preds = %8
  %34 = load i32, ptr %12, align 4
  %35 = sdiv i32 %34, 2
  invoke void @_ZN2cv5RangeC2Eii(ptr noundef nonnull align 4 dereferenceable(8) %18, i32 noundef 0, i32 noundef %35)
          to label %36 unwind label %38

36:                                               ; preds = %33
  invoke void @_ZN2cv13parallel_for_ERKNS_5RangeERKNS_16ParallelLoopBodyEd(ptr noundef nonnull align 4 dereferenceable(8) %18, ptr noundef nonnull align 8 dereferenceable(8) %17, double noundef -1.000000e+00)
          to label %37 unwind label %38

37:                                               ; preds = %36
  br label %47

38:                                               ; preds = %45, %42, %36, %33
  %39 = landingpad { ptr, i32 }
          cleanup
  %40 = extractvalue { ptr, i32 } %39, 0
  store ptr %40, ptr %19, align 8
  %41 = extractvalue { ptr, i32 } %39, 1
  store i32 %41, ptr %20, align 4
  call void @_ZN2cv3hal12cpu_baseline12_GLOBAL__N_120YUV420sp2RGB8InvokerILi2ELi1ELi3EED2Ev(ptr noundef nonnull align 8 dereferenceable(64) %17) #10
  br label %48

42:                                               ; preds = %8
  %43 = load i32, ptr %12, align 4
  %44 = sdiv i32 %43, 2
  invoke void @_ZN2cv5RangeC2Eii(ptr noundef nonnull align 4 dereferenceable(8) %21, i32 noundef 0, i32 noundef %44)
          to label %45 unwind label %38

45:                                               ; preds = %42
  invoke void @_ZNK2cv3hal12cpu_baseline12_GLOBAL__N_120YUV420sp2RGB8InvokerILi2ELi1ELi3EEclERKNS_5RangeE(ptr noundef nonnull align 8 dereferenceable(64) %17, ptr noundef nonnull align 4 dereferenceable(8) %21)
          to label %46 unwind label %38

46:                                               ; preds = %45
  br label %47

47:                                               ; preds = %46, %37
  call void @_ZN2cv3hal12cpu_baseline12_GLOBAL__N_120YUV420sp2RGB8InvokerILi2ELi1ELi3EED2Ev(ptr noundef nonnull align 8 dereferenceable(64) %17) #10
  ret void

48:                                               ; preds = %38
  %49 = load ptr, ptr %19, align 8
  %50 = load i32, ptr %20, align 4
  %51 = insertvalue { ptr, i32 } poison, ptr %49, 0
  %52 = insertvalue { ptr, i32 } %51, i32 %50, 1
  resume { ptr, i32 } %52
}