; Function Attrs: mustprogress uwtable
define internal void @_ZN2cv3hal12cpu_baseline12_GLOBAL__N_115cvtYUV420sp2RGBILi2ELi1ELi3EEEvPhmiiPKhmS6_m(ptr noundef %0, i64 noundef %1, i32 noundef %2, i32 noundef %3, ptr noundef %4, i64 noundef %5, ptr noundef %6, i64 noundef %7) unnamed_addr #0 personality ptr @__gxx_personality_v0 {
  %9 = alloca %"struct.cv::hal::cpu_baseline::(anonymous namespace)::YUV420sp2RGB8Invoker.15", align 8
  %10 = alloca %"class.cv::Range", align 4
  %11 = alloca %"class.cv::Range", align 4
  store ptr getelementptr inbounds inrange(-16, 24) (i8, ptr @_ZTVN2cv3hal12cpu_baseline12_GLOBAL__N_120YUV420sp2RGB8InvokerILi2ELi1ELi3EEE, i64 16), ptr %9, align 8
  %12 = getelementptr inbounds i8, ptr %9, i64 8
  store ptr %0, ptr %12, align 8
  %13 = getelementptr inbounds i8, ptr %9, i64 16
  store i64 %1, ptr %13, align 8
  %14 = getelementptr inbounds i8, ptr %9, i64 24
  store i32 %2, ptr %14, align 8
  %15 = getelementptr inbounds i8, ptr %9, i64 32
  store ptr %4, ptr %15, align 8
  %16 = getelementptr inbounds i8, ptr %9, i64 40
  store i64 %5, ptr %16, align 8
  %17 = getelementptr inbounds i8, ptr %9, i64 48
  store ptr %6, ptr %17, align 8
  %18 = getelementptr inbounds i8, ptr %9, i64 56
  store i64 %7, ptr %18, align 8
  %19 = mul nsw i32 %3, %2
  %20 = icmp sgt i32 %19, 76799
  %21 = sdiv i32 %3, 2
  br i1 %20, label %22, label %26

22:                                               ; preds = %8
  store i32 0, ptr %10, align 4
  %23 = getelementptr inbounds i8, ptr %10, i64 4
  store i32 %21, ptr %23, align 4
  invoke void @_ZN2cv13parallel_for_ERKNS_5RangeERKNS_16ParallelLoopBodyEd(ptr noundef nonnull align 4 dereferenceable(8) %10, ptr noundef nonnull align 8 dereferenceable(8) %9, double noundef -1.000000e+00)
          to label %28 unwind label %24

24:                                               ; preds = %22
  %25 = landingpad { ptr, i32 }
          cleanup
  call void @_ZN2cv16ParallelLoopBodyD2Ev(ptr noundef nonnull align 8 dereferenceable(8) %9) #12
  resume { ptr, i32 } %25

26:                                               ; preds = %8
  store i32 0, ptr %11, align 4
  %27 = getelementptr inbounds i8, ptr %11, i64 4
  store i32 %21, ptr %27, align 4
  call void @_ZNK2cv3hal12cpu_baseline12_GLOBAL__N_120YUV420sp2RGB8InvokerILi2ELi1ELi3EEclERKNS_5RangeE(ptr noundef nonnull align 8 dereferenceable(64) %9, ptr noundef nonnull align 4 dereferenceable(8) %11)
  br label %28

28:                                               ; preds = %26, %22
  call void @_ZN2cv16ParallelLoopBodyD2Ev(ptr noundef nonnull align 8 dereferenceable(8) %9) #12
  ret void
}